; Function Attrs: nounwind uwtable
define hidden void @_glfwSetClipboardStringX11(ptr noundef %0) local_unnamed_addr #0 {
  %2 = tail call ptr @_glfw_strdup(ptr noundef %0) #17
  %3 = load ptr, ptr getelementptr inbounds nuw (i8, ptr @_glfw, i64 137928), align 8, !tbaa !426
  tail call void @_glfw_free(ptr noundef %3) #17
  store ptr %2, ptr getelementptr inbounds nuw (i8, ptr @_glfw, i64 137928), align 8, !tbaa !426
  %4 = load ptr, ptr getelementptr inbounds nuw (i8, ptr @_glfw, i64 141904), align 8, !tbaa !427
  %5 = load ptr, ptr getelementptr inbounds nuw (i8, ptr @_glfw, i64 137840), align 8, !tbaa !93
  %6 = load i64, ptr getelementptr inbounds nuw (i8, ptr @_glfw, i64 141256), align 8, !tbaa !428
  %7 = load i64, ptr getelementptr inbounds nuw (i8, ptr @_glfw, i64 137872), align 8, !tbaa !104
  %8 = tail call i32 %4(ptr noundef %5, i64 noundef %6, i64 noundef %7, i64 noundef 0) #17
  %9 = load ptr, ptr getelementptr inbounds nuw (i8, ptr @_glfw, i64 141640), align 8, !tbaa !356
  %10 = load ptr, ptr getelementptr inbounds nuw (i8, ptr @_glfw, i64 137840), align 8, !tbaa !93
  %11 = load i64, ptr getelementptr inbounds nuw (i8, ptr @_glfw, i64 141256), align 8, !tbaa !428
  %12 = tail call i64 %9(ptr noundef %10, i64 noundef %11) #17
  %13 = load i64, ptr getelementptr inbounds nuw (i8, ptr @_glfw, i64 137872), align 8, !tbaa !104
  %.not = icmp eq i64 %12, %13
  br i1 %.not, label %15, label %14

14:                                               ; preds = %1
  tail call void (i32, ptr, ...) @_glfwInputError(i32 noundef 65544, ptr noundef nonnull @.str.20) #17
  br label %15

15:                                               ; preds = %14, %1
  ret void
}